; Function Attrs: nounwind uwtable
define range(i32 0, 2) i32 @Gia_ManRelOutsTfo_rec(ptr noundef %0, ptr noundef %1, ptr noundef %2) local_unnamed_addr #4 {
  %4 = getelementptr inbounds nuw i8, ptr %0, i64 616
  %5 = load ptr, ptr %4, align 8, !tbaa !91
  %6 = getelementptr i8, ptr %0, i64 32
  %.val.i = load ptr, ptr %6, align 8, !tbaa !40
  %7 = ptrtoint ptr %1 to i64
  %8 = ptrtoint ptr %.val.i to i64
  %9 = sub i64 %7, %8
  %10 = sdiv exact i64 %9, 12
  %sext.i = shl i64 %10, 32
  %11 = ashr exact i64 %sext.i, 30
  %12 = getelementptr inbounds i8, ptr %5, i64 %11
  %13 = load i32, ptr %12, align 4, !tbaa !30
  %14 = getelementptr inbounds nuw i8, ptr %0, i64 176
  %15 = load i32, ptr %14, align 8, !tbaa !90
  %16 = add nsw i32 %15, -1
  %.not = icmp eq i32 %13, %16
  br i1 %.not, label %80, label %17

17:                                               ; preds = %3
  %.not39 = icmp eq i32 %13, %15
  br i1 %.not39, label %80, label %18

18:                                               ; preds = %17
  %19 = load i64, ptr %1, align 4
  %.not27 = icmp sgt i64 %19, -1
  br i1 %.not27, label %21, label %20

20:                                               ; preds = %18
  store i32 %16, ptr %12, align 4, !tbaa !30
  br label %80

21:                                               ; preds = %18
  %22 = and i64 %19, 2147483648
  %.not.i = icmp ne i64 %22, 0
  %23 = and i64 %19, 536870911
  %24 = icmp eq i64 %23, 536870911
  %narrow.i.not = or i1 %.not.i, %24
  br i1 %narrow.i.not, label %.thread, label %25

25:                                               ; preds = %21
  %26 = sub nsw i64 0, %23
  %27 = getelementptr inbounds %struct.Gia_Obj_t_, ptr %1, i64 %26
  %28 = tail call i32 @Gia_ManRelOutsTfo_rec(ptr noundef nonnull %0, ptr noundef nonnull %27, ptr noundef %2)
  %29 = load i64, ptr %1, align 4
  %30 = lshr i64 %29, 32
  %31 = and i64 %30, 536870911
  %32 = sub nsw i64 0, %31
  %33 = getelementptr inbounds %struct.Gia_Obj_t_, ptr %1, i64 %32
  %34 = tail call i32 @Gia_ManRelOutsTfo_rec(ptr noundef nonnull %0, ptr noundef nonnull %33, ptr noundef %2)
  %35 = icmp ne i32 %28, 0
  %36 = icmp ne i32 %34, 0
  %or.cond = select i1 %35, i1 true, i1 %36
  %.pre = load i32, ptr %14, align 8, !tbaa !90
  %.pre41 = load ptr, ptr %4, align 8, !tbaa !91
  %.val.i36.pre = load ptr, ptr %6, align 8, !tbaa !40
  br i1 %or.cond, label %37, label %..thread_crit_edge

..thread_crit_edge:                               ; preds = %25
  %.pre43 = ptrtoint ptr %.val.i36.pre to i64
  %.pre44 = sub i64 %7, %.pre43
  %.pre46 = sdiv exact i64 %.pre44, 12
  %.pre48 = shl i64 %.pre46, 32
  %.pre49 = ashr exact i64 %.pre48, 30
  br label %.thread

37:                                               ; preds = %25
  %38 = add nsw i32 %.pre, -1
  %39 = ptrtoint ptr %.val.i36.pre to i64
  %40 = sub i64 %7, %39
  %41 = sdiv exact i64 %40, 12
  %sext.i35 = shl i64 %41, 32
  %42 = ashr exact i64 %sext.i35, 30
  %43 = getelementptr inbounds i8, ptr %.pre41, i64 %42
  store i32 %38, ptr %43, align 4, !tbaa !30
  %44 = trunc i64 %41 to i32
  %45 = getelementptr inbounds nuw i8, ptr %2, i64 4
  %46 = load i32, ptr %45, align 4, !tbaa !28
  %47 = load i32, ptr %2, align 8, !tbaa !80
  %48 = icmp eq i32 %46, %47
  br i1 %48, label %49, label %.Vec_IntGrow.exit10_crit_edge.i

.Vec_IntGrow.exit10_crit_edge.i:                  ; preds = %37
  %.phi.trans.insert.i = getelementptr inbounds nuw i8, ptr %2, i64 8
  %.pre.i = load ptr, ptr %.phi.trans.insert.i, align 8, !tbaa !29
  br label %71

49:                                               ; preds = %37
  %50 = icmp slt i32 %46, 16
  br i1 %50, label %51, label %59

51:                                               ; preds = %49
  %52 = getelementptr inbounds nuw i8, ptr %2, i64 8
  %53 = load ptr, ptr %52, align 8, !tbaa !29
  %.not9.i.i = icmp eq ptr %53, null
  br i1 %.not9.i.i, label %56, label %54

54:                                               ; preds = %51
  %55 = tail call dereferenceable_or_null(64) ptr @realloc(ptr noundef nonnull %53, i64 noundef 64) #34
  br label %Vec_IntGrow.exit.i

56:                                               ; preds = %51
  %57 = tail call noalias dereferenceable_or_null(64) ptr @malloc(i64 noundef 64) #31
  br label %Vec_IntGrow.exit.i

Vec_IntGrow.exit.i:                               ; preds = %56, %54
  %58 = phi ptr [ %55, %54 ], [ %57, %56 ]
  store ptr %58, ptr %52, align 8, !tbaa !29
  store i32 16, ptr %2, align 8, !tbaa !80
  br label %71

59:                                               ; preds = %49
  %60 = shl nuw nsw i32 %46, 1
  %61 = getelementptr inbounds nuw i8, ptr %2, i64 8
  %62 = load ptr, ptr %61, align 8, !tbaa !29
  %.not9.i9.i = icmp eq ptr %62, null
  %63 = zext nneg i32 %60 to i64
  %64 = shl nuw nsw i64 %63, 2
  br i1 %.not9.i9.i, label %67, label %65

65:                                               ; preds = %59
  %66 = tail call ptr @realloc(ptr noundef nonnull %62, i64 noundef %64) #34
  br label %69

67:                                               ; preds = %59
  %68 = tail call noalias ptr @malloc(i64 noundef %64) #31
  br label %69

69:                                               ; preds = %67, %65
  %70 = phi ptr [ %66, %65 ], [ %68, %67 ]
  store ptr %70, ptr %61, align 8, !tbaa !29
  store i32 %60, ptr %2, align 8, !tbaa !80
  br label %71

71:                                               ; preds = %69, %Vec_IntGrow.exit.i, %.Vec_IntGrow.exit10_crit_edge.i
  %72 = phi ptr [ %.pre.i, %.Vec_IntGrow.exit10_crit_edge.i ], [ %70, %69 ], [ %58, %Vec_IntGrow.exit.i ]
  %73 = load i32, ptr %45, align 4, !tbaa !28
  %74 = add nsw i32 %73, 1
  store i32 %74, ptr %45, align 4, !tbaa !28
  %75 = sext i32 %73 to i64
  %76 = getelementptr inbounds i32, ptr %72, i64 %75
  store i32 %44, ptr %76, align 4, !tbaa !30
  br label %80

.thread:                                          ; preds = %..thread_crit_edge, %21
  %.pre-phi50 = phi i64 [ %.pre49, %..thread_crit_edge ], [ %11, %21 ]
  %77 = phi ptr [ %.pre41, %..thread_crit_edge ], [ %5, %21 ]
  %78 = phi i32 [ %.pre, %..thread_crit_edge ], [ %15, %21 ]
  %79 = getelementptr inbounds i8, ptr %77, i64 %.pre-phi50
  store i32 %78, ptr %79, align 4, !tbaa !30
  br label %80

80:                                               ; preds = %71, %17, %3, %.thread, %20
  %.025 = phi i32 [ 1, %20 ], [ 1, %71 ], [ 0, %.thread ], [ 1, %3 ], [ 0, %17 ]
  ret i32 %.025
}